target datalayout = "e-m:e-p270:32:32-p271:32:32-p272:64:64-i64:64-i128:128-f80:128-n8:16:32:64-S128"
target triple = "x86_64-pc-linux-gnu"

%struct.Node = type { i32 }
%struct.ParseState = type { ptr, ptr, i32, i32, ptr, ptr, ptr, ptr, ptr, ptr, i8, ptr, ptr, ptr, ptr, ptr, ptr, i8, ptr, i32, i32, ptr, ptr, i8, i8, ptr, i8, i8, i8, i8, i8, ptr, ptr, ptr, ptr, ptr, ptr }
%struct.ForEachState = type { ptr, i32 }
%struct.List = type { i32, i32, i32, ptr, [0 x %union.ListCell] }
%union.ListCell = type { ptr }
%struct.ResTarget = type { i32, ptr, ptr, ptr, i32 }
%struct.ColumnRef = type { i32, ptr, i32 }
%struct.A_Indirection = type { i32, ptr, ptr }

@.str.15 = private unnamed_addr constant [9 x i8] c"?column?\00", align 1

; Function Attrs: nounwind uwtable
define dso_local ptr @FigureColname(ptr noundef %0) #0 {
  %2 = alloca ptr, align 8
  %3 = alloca ptr, align 8
  %4 = alloca ptr, align 8
  %5 = alloca i32, align 4
  store ptr %0, ptr %3, align 8
  call void @llvm.lifetime.start.p0(i64 8, ptr %4) #8
  store ptr null, ptr %4, align 8
  %6 = load ptr, ptr %3, align 8
  %7 = call i32 @FigureColnameInternal(ptr noundef %6, ptr noundef %4)
  %8 = load ptr, ptr %4, align 8
  %9 = icmp ne ptr %8, null
  br i1 %9, label %10, label %12

10:                                               ; preds = %1
  %11 = load ptr, ptr %4, align 8
  store ptr %11, ptr %2, align 8
  store i32 1, ptr %5, align 4
  br label %13

12:                                               ; preds = %1
  store ptr @.str.15, ptr %2, align 8
  store i32 1, ptr %5, align 4
  br label %13

13:                                               ; preds = %12, %10
  call void @llvm.lifetime.end.p0(i64 8, ptr %4) #8
  %14 = load ptr, ptr %2, align 8
  ret ptr %14
}

; Function Attrs: inlinehint nounwind uwtable
define internal i32 @list_length(ptr noundef %0) #4 {
  %2 = alloca ptr, align 8
  store ptr %0, ptr %2, align 8
  %3 = load ptr, ptr %2, align 8
  %4 = icmp ne ptr %3, null
  br i1 %4, label %5, label %9

5:                                                ; preds = %1
  %6 = load ptr, ptr %2, align 8
  %7 = getelementptr inbounds nuw %struct.List, ptr %6, i32 0, i32 1
  %8 = load i32, ptr %7, align 4
  br label %10

9:                                                ; preds = %1
  br label %10

10:                                               ; preds = %9, %5
  %11 = phi i32 [ %8, %5 ], [ 0, %9 ]
  ret i32 %11
}

; Function Attrs: nounwind uwtable
define dso_local ptr @transformTargetEntry(ptr noundef %0, ptr noundef %1, ptr noundef %2, i32 noundef %3, ptr noundef %4, i1 noundef zeroext %5) #0 {
  %7 = alloca ptr, align 8
  %8 = alloca ptr, align 8
  %9 = alloca ptr, align 8
  %10 = alloca i32, align 4
  %11 = alloca ptr, align 8
  %12 = alloca i8, align 1
  store ptr %0, ptr %7, align 8
  store ptr %1, ptr %8, align 8
  store ptr %2, ptr %9, align 8
  store i32 %3, ptr %10, align 4
  store ptr %4, ptr %11, align 8
  %13 = zext i1 %5 to i8
  store i8 %13, ptr %12, align 1
  %14 = load ptr, ptr %9, align 8
  %15 = icmp eq ptr %14, null
  br i1 %15, label %16, label %32

16:                                               ; preds = %6
  %17 = load i32, ptr %10, align 4
  %18 = icmp eq i32 %17, 16
  br i1 %18, label %19, label %26

19:                                               ; preds = %16
  %20 = load ptr, ptr %8, align 8
  %21 = getelementptr inbounds nuw %struct.Node, ptr %20, i32 0, i32 0
  %22 = load i32, ptr %21, align 4
  %23 = icmp eq i32 %22, 57
  br i1 %23, label %24, label %26

24:                                               ; preds = %19
  %25 = load ptr, ptr %8, align 8
  store ptr %25, ptr %9, align 8
  br label %31

26:                                               ; preds = %19, %16
  %27 = load ptr, ptr %7, align 8
  %28 = load ptr, ptr %8, align 8
  %29 = load i32, ptr %10, align 4
  %30 = call ptr @transformExpr(ptr noundef %27, ptr noundef %28, i32 noundef %29)
  store ptr %30, ptr %9, align 8
  br label %31

31:                                               ; preds = %26, %24
  br label %32

32:                                               ; preds = %31, %6
  %33 = load ptr, ptr %11, align 8
  %34 = icmp eq ptr %33, null
  br i1 %34, label %35, label %41

35:                                               ; preds = %32
  %36 = load i8, ptr %12, align 1, !range !4, !noundef !5
  %37 = trunc i8 %36 to i1
  br i1 %37, label %41, label %38

38:                                               ; preds = %35
  %39 = load ptr, ptr %8, align 8
  %40 = call ptr @FigureColname(ptr noundef %39)
  store ptr %40, ptr %11, align 8
  br label %41

41:                                               ; preds = %38, %35, %32
  %42 = load ptr, ptr %9, align 8
  %43 = load ptr, ptr %7, align 8
  %44 = getelementptr inbounds nuw %struct.ParseState, ptr %43, i32 0, i32 20
  %45 = load i32, ptr %44, align 4
  %46 = add i32 %45, 1
  store i32 %46, ptr %44, align 4
  %47 = trunc i32 %45 to i16
  %48 = load ptr, ptr %11, align 8
  %49 = load i8, ptr %12, align 1, !range !4, !noundef !5
  %50 = trunc i8 %49 to i1
  %51 = call ptr @makeTargetEntry(ptr noundef %42, i16 noundef signext %47, ptr noundef %48, i1 noundef zeroext %50)
  ret ptr %51
}

; Function Attrs: nounwind uwtable
define internal ptr @ExpandIndirectionStar(ptr noundef %0, ptr noundef %1, i1 noundef zeroext %2, i32 noundef %3) #0 {
  %5 = alloca ptr, align 8
  %6 = alloca ptr, align 8
  %7 = alloca i8, align 1
  %8 = alloca i32, align 4
  %9 = alloca ptr, align 8
  store ptr %0, ptr %5, align 8
  store ptr %1, ptr %6, align 8
  %10 = zext i1 %2 to i8
  store i8 %10, ptr %7, align 1
  store i32 %3, ptr %8, align 4
  call void @llvm.lifetime.start.p0(i64 8, ptr %9) #8
  %11 = load ptr, ptr %6, align 8
  %12 = call ptr @copyObjectImpl(ptr noundef %11)
  store ptr %12, ptr %6, align 8
  %13 = load ptr, ptr %6, align 8
  %14 = getelementptr inbounds nuw %struct.A_Indirection, ptr %13, i32 0, i32 2
  %15 = load ptr, ptr %14, align 8
  %16 = load ptr, ptr %6, align 8
  %17 = getelementptr inbounds nuw %struct.A_Indirection, ptr %16, i32 0, i32 2
  %18 = load ptr, ptr %17, align 8
  %19 = call i32 @list_length(ptr noundef %18)
  %20 = sub i32 %19, 1
  %21 = call ptr @list_truncate(ptr noundef %15, i32 noundef %20)
  %22 = load ptr, ptr %6, align 8
  %23 = getelementptr inbounds nuw %struct.A_Indirection, ptr %22, i32 0, i32 2
  store ptr %21, ptr %23, align 8
  %24 = load ptr, ptr %5, align 8
  %25 = load ptr, ptr %6, align 8
  %26 = load i32, ptr %8, align 4
  %27 = call ptr @transformExpr(ptr noundef %24, ptr noundef %25, i32 noundef %26)
  store ptr %27, ptr %9, align 8
  %28 = load ptr, ptr %5, align 8
  %29 = load ptr, ptr %9, align 8
  %30 = load i8, ptr %7, align 1, !range !4, !noundef !5
  %31 = trunc i8 %30 to i1
  %32 = call ptr @ExpandRowReference(ptr noundef %28, ptr noundef %29, i1 noundef zeroext %31)
  call void @llvm.lifetime.end.p0(i64 8, ptr %9) #8
  ret ptr %32
}

; Function Attrs: inlinehint nounwind uwtable
define internal ptr @list_last_cell(ptr noundef %0) #4 {
  %2 = alloca ptr, align 8
  store ptr %0, ptr %2, align 8
  %3 = load ptr, ptr %2, align 8
  %4 = getelementptr inbounds nuw %struct.List, ptr %3, i32 0, i32 3
  %5 = load ptr, ptr %4, align 8
  %6 = load ptr, ptr %2, align 8
  %7 = getelementptr inbounds nuw %struct.List, ptr %6, i32 0, i32 1
  %8 = load i32, ptr %7, align 4
  %9 = sub i32 %8, 1
  %10 = sext i32 %9 to i64
  %11 = getelementptr inbounds %union.ListCell, ptr %5, i64 %10
  ret ptr %11
}

; Function Attrs: nounwind uwtable
define dso_local ptr @transformTargetList(ptr noundef %0, ptr noundef %1, i32 noundef %2) #0 {
  %4 = alloca ptr, align 8
  %5 = alloca ptr, align 8
  %6 = alloca i32, align 4
  %7 = alloca ptr, align 8
  %8 = alloca i8, align 1
  %9 = alloca ptr, align 8
  %10 = alloca %struct.ForEachState, align 8
  %11 = alloca i32, align 4
  %12 = alloca ptr, align 8
  %13 = alloca ptr, align 8
  %14 = alloca ptr, align 8
  store ptr %0, ptr %4, align 8
  store ptr %1, ptr %5, align 8
  store i32 %2, ptr %6, align 4
  call void @llvm.lifetime.start.p0(i64 8, ptr %7) #8
  store ptr null, ptr %7, align 8
  call void @llvm.lifetime.start.p0(i64 1, ptr %8) #8
  call void @llvm.lifetime.start.p0(i64 8, ptr %9) #8
  %15 = load i32, ptr %6, align 4
  %16 = icmp ne i32 %15, 16
  %17 = zext i1 %16 to i8
  store i8 %17, ptr %8, align 1
  call void @llvm.lifetime.start.p0(i64 16, ptr %10) #8
  %18 = getelementptr inbounds nuw %struct.ForEachState, ptr %10, i32 0, i32 0
  %19 = load ptr, ptr %5, align 8
  store ptr %19, ptr %18, align 8
  %20 = getelementptr inbounds nuw %struct.ForEachState, ptr %10, i32 0, i32 1
  store i32 0, ptr %20, align 8
  %21 = getelementptr i8, ptr %10, i64 12
  call void @llvm.memset.p0.i64(ptr align 4 %21, i8 0, i64 4, i1 false)
  br label %22

22:                                               ; preds = %129, %3
  %23 = getelementptr inbounds nuw %struct.ForEachState, ptr %10, i32 0, i32 0
  %24 = load ptr, ptr %23, align 8
  %25 = icmp ne ptr %24, null
  br i1 %25, label %26, label %43

26:                                               ; preds = %22
  %27 = getelementptr inbounds nuw %struct.ForEachState, ptr %10, i32 0, i32 1
  %28 = load i32, ptr %27, align 8
  %29 = getelementptr inbounds nuw %struct.ForEachState, ptr %10, i32 0, i32 0
  %30 = load ptr, ptr %29, align 8
  %31 = getelementptr inbounds nuw %struct.List, ptr %30, i32 0, i32 1
  %32 = load i32, ptr %31, align 4
  %33 = icmp slt i32 %28, %32
  br i1 %33, label %34, label %43

34:                                               ; preds = %26
  %35 = getelementptr inbounds nuw %struct.ForEachState, ptr %10, i32 0, i32 0
  %36 = load ptr, ptr %35, align 8
  %37 = getelementptr inbounds nuw %struct.List, ptr %36, i32 0, i32 3
  %38 = load ptr, ptr %37, align 8
  %39 = getelementptr inbounds nuw %struct.ForEachState, ptr %10, i32 0, i32 1
  %40 = load i32, ptr %39, align 8
  %41 = sext i32 %40 to i64
  %42 = getelementptr inbounds %union.ListCell, ptr %38, i64 %41
  store ptr %42, ptr %9, align 8
  br label %44

43:                                               ; preds = %26, %22
  store ptr null, ptr %9, align 8
  br label %44

44:                                               ; preds = %43, %34
  %45 = phi i32 [ 1, %34 ], [ 0, %43 ]
  %46 = icmp ne i32 %45, 0
  br i1 %46, label %48, label %47

47:                                               ; preds = %44
  store i32 2, ptr %11, align 4
  call void @llvm.lifetime.end.p0(i64 16, ptr %10) #8
  br label %133

48:                                               ; preds = %44
  call void @llvm.lifetime.start.p0(i64 8, ptr %12) #8
  %49 = load ptr, ptr %9, align 8
  %50 = load ptr, ptr %49, align 8
  store ptr %50, ptr %12, align 8
  %51 = load i8, ptr %8, align 1, !range !4, !noundef !5
  %52 = trunc i8 %51 to i1
  br i1 %52, label %53, label %114

53:                                               ; preds = %48
  %54 = load ptr, ptr %12, align 8
  %55 = getelementptr inbounds nuw %struct.ResTarget, ptr %54, i32 0, i32 3
  %56 = load ptr, ptr %55, align 8
  %57 = getelementptr inbounds nuw %struct.Node, ptr %56, i32 0, i32 0
  %58 = load i32, ptr %57, align 4
  %59 = icmp eq i32 %58, 69
  br i1 %59, label %60, label %82

60:                                               ; preds = %53
  call void @llvm.lifetime.start.p0(i64 8, ptr %13) #8
  %61 = load ptr, ptr %12, align 8
  %62 = getelementptr inbounds nuw %struct.ResTarget, ptr %61, i32 0, i32 3
  %63 = load ptr, ptr %62, align 8
  store ptr %63, ptr %13, align 8
  %64 = load ptr, ptr %13, align 8
  %65 = getelementptr inbounds nuw %struct.ColumnRef, ptr %64, i32 0, i32 1
  %66 = load ptr, ptr %65, align 8
  %67 = call ptr @list_last_cell(ptr noundef %66)
  %68 = load ptr, ptr %67, align 8
  %69 = getelementptr inbounds nuw %struct.Node, ptr %68, i32 0, i32 0
  %70 = load i32, ptr %69, align 4
  %71 = icmp eq i32 %70, 77
  br i1 %71, label %72, label %78

72:                                               ; preds = %60
  %73 = load ptr, ptr %7, align 8
  %74 = load ptr, ptr %4, align 8
  %75 = load ptr, ptr %13, align 8
  %76 = call ptr @ExpandColumnRefStar(ptr noundef %74, ptr noundef %75, i1 noundef zeroext true)
  %77 = call ptr @list_concat(ptr noundef %73, ptr noundef %76)
  store ptr %77, ptr %7, align 8
  store i32 4, ptr %11, align 4
  br label %79

78:                                               ; preds = %60
  store i32 0, ptr %11, align 4
  br label %79

79:                                               ; preds = %78, %72
  call void @llvm.lifetime.end.p0(i64 8, ptr %13) #8
  %80 = load i32, ptr %11, align 4
  switch i32 %80, label %126 [
    i32 0, label %81
  ]

81:                                               ; preds = %79
  br label %113

82:                                               ; preds = %53
  %83 = load ptr, ptr %12, align 8
  %84 = getelementptr inbounds nuw %struct.ResTarget, ptr %83, i32 0, i32 3
  %85 = load ptr, ptr %84, align 8
  %86 = getelementptr inbounds nuw %struct.Node, ptr %85, i32 0, i32 0
  %87 = load i32, ptr %86, align 4
  %88 = icmp eq i32 %87, 79
  br i1 %88, label %89, label %112

89:                                               ; preds = %82
  call void @llvm.lifetime.start.p0(i64 8, ptr %14) #8
  %90 = load ptr, ptr %12, align 8
  %91 = getelementptr inbounds nuw %struct.ResTarget, ptr %90, i32 0, i32 3
  %92 = load ptr, ptr %91, align 8
  store ptr %92, ptr %14, align 8
  %93 = load ptr, ptr %14, align 8
  %94 = getelementptr inbounds nuw %struct.A_Indirection, ptr %93, i32 0, i32 2
  %95 = load ptr, ptr %94, align 8
  %96 = call ptr @list_last_cell(ptr noundef %95)
  %97 = load ptr, ptr %96, align 8
  %98 = getelementptr inbounds nuw %struct.Node, ptr %97, i32 0, i32 0
  %99 = load i32, ptr %98, align 4
  %100 = icmp eq i32 %99, 77
  br i1 %100, label %101, label %108

101:                                              ; preds = %89
  %102 = load ptr, ptr %7, align 8
  %103 = load ptr, ptr %4, align 8
  %104 = load ptr, ptr %14, align 8
  %105 = load i32, ptr %6, align 4
  %106 = call ptr @ExpandIndirectionStar(ptr noundef %103, ptr noundef %104, i1 noundef zeroext true, i32 noundef %105)
  %107 = call ptr @list_concat(ptr noundef %102, ptr noundef %106)
  store ptr %107, ptr %7, align 8
  store i32 4, ptr %11, align 4
  br label %109

108:                                              ; preds = %89
  store i32 0, ptr %11, align 4
  br label %109

109:                                              ; preds = %108, %101
  call void @llvm.lifetime.end.p0(i64 8, ptr %14) #8
  %110 = load i32, ptr %11, align 4
  switch i32 %110, label %126 [
    i32 0, label %111
  ]

111:                                              ; preds = %109
  br label %112

112:                                              ; preds = %111, %82
  br label %113

113:                                              ; preds = %112, %81
  br label %114

114:                                              ; preds = %113, %48
  %115 = load ptr, ptr %7, align 8
  %116 = load ptr, ptr %4, align 8
  %117 = load ptr, ptr %12, align 8
  %118 = getelementptr inbounds nuw %struct.ResTarget, ptr %117, i32 0, i32 3
  %119 = load ptr, ptr %118, align 8
  %120 = load i32, ptr %6, align 4
  %121 = load ptr, ptr %12, align 8
  %122 = getelementptr inbounds nuw %struct.ResTarget, ptr %121, i32 0, i32 1
  %123 = load ptr, ptr %122, align 8
  %124 = call ptr @transformTargetEntry(ptr noundef %116, ptr noundef %119, ptr noundef null, i32 noundef %120, ptr noundef %123, i1 noundef zeroext false)
  %125 = call ptr @lappend(ptr noundef %115, ptr noundef %124)
  store ptr %125, ptr %7, align 8
  store i32 0, ptr %11, align 4
  br label %126

126:                                              ; preds = %114, %109, %79
  call void @llvm.lifetime.end.p0(i64 8, ptr %12) #8
  %127 = load i32, ptr %11, align 4
  switch i32 %127, label %148 [
    i32 0, label %128
    i32 4, label %129
  ]

128:                                              ; preds = %126
  br label %129

129:                                              ; preds = %128, %126
  %130 = getelementptr inbounds nuw %struct.ForEachState, ptr %10, i32 0, i32 1
  %131 = load i32, ptr %130, align 8
  %132 = add i32 %131, 1
  store i32 %132, ptr %130, align 8
  br label %22, !llvm.loop !6

133:                                              ; preds = %47
  %134 = load ptr, ptr %4, align 8
  %135 = getelementptr inbounds nuw %struct.ParseState, ptr %134, i32 0, i32 21
  %136 = load ptr, ptr %135, align 8
  %137 = icmp ne ptr %136, null
  br i1 %137, label %138, label %146

138:                                              ; preds = %133
  %139 = load ptr, ptr %7, align 8
  %140 = load ptr, ptr %4, align 8
  %141 = getelementptr inbounds nuw %struct.ParseState, ptr %140, i32 0, i32 21
  %142 = load ptr, ptr %141, align 8
  %143 = call ptr @list_concat(ptr noundef %139, ptr noundef %142)
  store ptr %143, ptr %7, align 8
  %144 = load ptr, ptr %4, align 8
  %145 = getelementptr inbounds nuw %struct.ParseState, ptr %144, i32 0, i32 21
  store ptr null, ptr %145, align 8
  br label %146

146:                                              ; preds = %138, %133
  %147 = load ptr, ptr %7, align 8
  store i32 1, ptr %11, align 4
  call void @llvm.lifetime.end.p0(i64 8, ptr %9) #8
  call void @llvm.lifetime.end.p0(i64 1, ptr %8) #8
  call void @llvm.lifetime.end.p0(i64 8, ptr %7) #8
  ret ptr %147

148:                                              ; preds = %126
  unreachable
}