; Function Attrs: nounwind uwtable
define dso_local ptr @transformTargetList(ptr noundef %0, ptr noundef readonly captures(address_is_null) %1, i32 noundef %2) local_unnamed_addr #0 {
  %4 = alloca ptr, align 8
  %5 = getelementptr inbounds nuw i8, ptr %1, i64 4
  %.not40 = icmp eq ptr %1, null
  br i1 %.not40, label %._crit_edge, label %.lr.ph

.lr.ph:                                           ; preds = %3
  %.not = icmp eq i32 %2, 16
  %6 = getelementptr inbounds nuw i8, ptr %1, i64 16
  %7 = getelementptr inbounds nuw i8, ptr %0, i64 148
  %8 = load i32, ptr %5, align 4
  %9 = icmp sgt i32 %8, 0
  br i1 %.not, label %.lr.ph.split.us.split, label %.lr.ph.split.preheader

.lr.ph.split.preheader:                           ; preds = %.lr.ph
  br i1 %9, label %.lr.ph81, label %._crit_edge

.lr.ph.split.us.split:                            ; preds = %.lr.ph
  br i1 %9, label %.lr.ph70, label %._crit_edge

.lr.ph70:                                         ; preds = %.lr.ph.split.us.split, %transformTargetEntry.exit.us
  %indvars.iv74 = phi i64 [ %indvars.iv.next75, %transformTargetEntry.exit.us ], [ 0, %.lr.ph.split.us.split ]
  %.062.us68 = phi ptr [ %29, %transformTargetEntry.exit.us ], [ null, %.lr.ph.split.us.split ]
  %10 = load ptr, ptr %6, align 8
  %11 = getelementptr inbounds nuw %union.ListCell, ptr %10, i64 %indvars.iv74
  %12 = load ptr, ptr %11, align 8
  %13 = getelementptr inbounds nuw i8, ptr %12, i64 24
  %14 = load ptr, ptr %13, align 8
  %15 = getelementptr inbounds nuw i8, ptr %12, i64 8
  %16 = load ptr, ptr %15, align 8
  %17 = load i32, ptr %14, align 4
  %18 = icmp eq i32 %17, 57
  br i1 %18, label %21, label %19

19:                                               ; preds = %.lr.ph70
  %20 = call ptr @transformExpr(ptr noundef %0, ptr noundef nonnull %14, i32 noundef 16) #8
  br label %21

21:                                               ; preds = %19, %.lr.ph70
  %.0.i.us = phi ptr [ %20, %19 ], [ %14, %.lr.ph70 ]
  %.not60.us = icmp eq ptr %16, null
  br i1 %.not60.us, label %22, label %transformTargetEntry.exit.us

22:                                               ; preds = %21
  call void @llvm.lifetime.start.p0(i64 8, ptr nonnull %4) #8
  store ptr null, ptr %4, align 8
  %23 = call fastcc i32 @FigureColnameInternal(ptr noundef nonnull %14, ptr noundef %4)
  %24 = load ptr, ptr %4, align 8
  %.not.i.i48.us = icmp eq ptr %24, null
  %.str.15..i.i.us = select i1 %.not.i.i48.us, ptr @.str.15, ptr %24
  call void @llvm.lifetime.end.p0(i64 8, ptr nonnull %4) #8
  br label %transformTargetEntry.exit.us

transformTargetEntry.exit.us:                     ; preds = %22, %21
  %.013.i.us = phi ptr [ %.str.15..i.i.us, %22 ], [ %16, %21 ]
  %25 = load i32, ptr %7, align 4
  %26 = add i32 %25, 1
  store i32 %26, ptr %7, align 4
  %27 = trunc i32 %25 to i16
  %28 = call ptr @makeTargetEntry(ptr noundef %.0.i.us, i16 noundef signext %27, ptr noundef nonnull %.013.i.us, i1 noundef zeroext false) #8
  %29 = call ptr @lappend(ptr noundef %.062.us68, ptr noundef %28) #8
  %indvars.iv.next75 = add nuw nsw i64 %indvars.iv74, 1
  %30 = load i32, ptr %5, align 4
  %31 = sext i32 %30 to i64
  %32 = icmp slt i64 %indvars.iv.next75, %31
  br i1 %32, label %.lr.ph70, label %._crit_edge

._crit_edge:                                      ; preds = %.lr.ph.split, %transformTargetEntry.exit.us, %.lr.ph.split.preheader, %.lr.ph.split.us.split, %3
  %.0.lcssa = phi ptr [ null, %3 ], [ null, %.lr.ph.split.us.split ], [ null, %.lr.ph.split.preheader ], [ %29, %transformTargetEntry.exit.us ], [ %.3, %.lr.ph.split ]
  %33 = getelementptr inbounds nuw i8, ptr %0, i64 152
  %34 = load ptr, ptr %33, align 8
  %.not42 = icmp eq ptr %34, null
  br i1 %.not42, label %92, label %90

.lr.ph81:                                         ; preds = %.lr.ph.split.preheader, %.lr.ph.split
  %.06280 = phi ptr [ %.3, %.lr.ph.split ], [ null, %.lr.ph.split.preheader ]
  %indvars.iv79 = phi i64 [ %indvars.iv.next, %.lr.ph.split ], [ 0, %.lr.ph.split.preheader ]
  %35 = load ptr, ptr %6, align 8
  %36 = getelementptr inbounds nuw %union.ListCell, ptr %35, i64 %indvars.iv79
  %37 = load ptr, ptr %36, align 8
  %38 = getelementptr inbounds nuw i8, ptr %37, i64 24
  %39 = load ptr, ptr %38, align 8
  %40 = load i32, ptr %39, align 4
  switch i32 %40, label %.thread56 [
    i32 69, label %41
    i32 79, label %53
  ]

41:                                               ; preds = %.lr.ph81
  %42 = getelementptr inbounds nuw i8, ptr %39, i64 8
  %43 = load ptr, ptr %42, align 8
  %44 = getelementptr i8, ptr %43, i64 4
  %.val = load i32, ptr %44, align 4
  %45 = getelementptr i8, ptr %43, i64 16
  %.val45 = load ptr, ptr %45, align 8
  %46 = add i32 %.val, -1
  %47 = sext i32 %46 to i64
  %48 = getelementptr inbounds %union.ListCell, ptr %.val45, i64 %47
  %49 = load ptr, ptr %48, align 8
  %50 = load i32, ptr %49, align 4
  %.not44 = icmp eq i32 %50, 77
  br i1 %.not44, label %.thread51, label %.thread56

.thread51:                                        ; preds = %41
  %51 = call fastcc ptr @ExpandColumnRefStar(ptr noundef %0, ptr noundef nonnull %39, i1 noundef zeroext true)
  %52 = call ptr @list_concat(ptr noundef %.06280, ptr noundef %51) #8
  br label %.lr.ph.split

53:                                               ; preds = %.lr.ph81
  %54 = getelementptr inbounds nuw i8, ptr %39, i64 16
  %55 = load ptr, ptr %54, align 8
  %56 = getelementptr i8, ptr %55, i64 4
  %.val46 = load i32, ptr %56, align 4
  %57 = getelementptr i8, ptr %55, i64 16
  %.val47 = load ptr, ptr %57, align 8
  %58 = add i32 %.val46, -1
  %59 = sext i32 %58 to i64
  %60 = getelementptr inbounds %union.ListCell, ptr %.val47, i64 %59
  %61 = load ptr, ptr %60, align 8
  %62 = load i32, ptr %61, align 4
  %.not43 = icmp eq i32 %62, 77
  br i1 %.not43, label %63, label %.thread56

63:                                               ; preds = %53
  %64 = call ptr @copyObjectImpl(ptr noundef nonnull %39) #8
  %65 = getelementptr inbounds nuw i8, ptr %64, i64 16
  %66 = load ptr, ptr %65, align 8
  %.not.i.i = icmp eq ptr %66, null
  br i1 %.not.i.i, label %.thread53, label %67

67:                                               ; preds = %63
  %68 = getelementptr inbounds nuw i8, ptr %66, i64 4
  %69 = load i32, ptr %68, align 4
  %70 = add i32 %69, -1
  br label %.thread53

.thread53:                                        ; preds = %67, %63
  %71 = phi i32 [ %70, %67 ], [ -1, %63 ]
  %72 = call ptr @list_truncate(ptr noundef %66, i32 noundef %71) #8
  store ptr %72, ptr %65, align 8
  %73 = call ptr @transformExpr(ptr noundef %0, ptr noundef nonnull %64, i32 noundef %2) #8
  %74 = call fastcc ptr @ExpandRowReference(ptr noundef %0, ptr noundef %73, i1 noundef zeroext true)
  %75 = call ptr @list_concat(ptr noundef %.06280, ptr noundef %74) #8
  br label %.lr.ph.split

.thread56:                                        ; preds = %53, %41, %.lr.ph81
  %76 = getelementptr inbounds nuw i8, ptr %37, i64 8
  %77 = load ptr, ptr %76, align 8
  %78 = call ptr @transformExpr(ptr noundef %0, ptr noundef nonnull %39, i32 noundef %2) #8
  %.not60 = icmp eq ptr %77, null
  br i1 %.not60, label %79, label %transformTargetEntry.exit

79:                                               ; preds = %.thread56
  call void @llvm.lifetime.start.p0(i64 8, ptr nonnull %4) #8
  store ptr null, ptr %4, align 8
  %80 = call fastcc i32 @FigureColnameInternal(ptr noundef nonnull %39, ptr noundef %4)
  %81 = load ptr, ptr %4, align 8
  %.not.i.i48 = icmp eq ptr %81, null
  %.str.15..i.i = select i1 %.not.i.i48, ptr @.str.15, ptr %81
  call void @llvm.lifetime.end.p0(i64 8, ptr nonnull %4) #8
  br label %transformTargetEntry.exit

transformTargetEntry.exit:                        ; preds = %.thread56, %79
  %.013.i = phi ptr [ %.str.15..i.i, %79 ], [ %77, %.thread56 ]
  %82 = load i32, ptr %7, align 4
  %83 = add i32 %82, 1
  store i32 %83, ptr %7, align 4
  %84 = trunc i32 %82 to i16
  %85 = call ptr @makeTargetEntry(ptr noundef %78, i16 noundef signext %84, ptr noundef nonnull %.013.i, i1 noundef zeroext false) #8
  %86 = call ptr @lappend(ptr noundef %.06280, ptr noundef %85) #8
  br label %.lr.ph.split

.lr.ph.split:                                     ; preds = %.thread53, %.thread51, %transformTargetEntry.exit
  %.3 = phi ptr [ %86, %transformTargetEntry.exit ], [ %52, %.thread51 ], [ %75, %.thread53 ]
  %indvars.iv.next = add nuw nsw i64 %indvars.iv79, 1
  %87 = load i32, ptr %5, align 4
  %88 = sext i32 %87 to i64
  %89 = icmp slt i64 %indvars.iv.next, %88
  br i1 %89, label %.lr.ph81, label %._crit_edge

90:                                               ; preds = %._crit_edge
  %91 = call ptr @list_concat(ptr noundef %.0.lcssa, ptr noundef nonnull %34) #8
  store ptr null, ptr %33, align 8
  br label %92

92:                                               ; preds = %90, %._crit_edge
  %.5 = phi ptr [ %91, %90 ], [ %.0.lcssa, %._crit_edge ]
  ret ptr %.5
}